target datalayout = "e-m:e-p270:32:32-p271:32:32-p272:64:64-i64:64-i128:128-f80:128-n8:16:32:64-S128"
target triple = "x86_64-pc-linux-gnu"

%struct.slurmdb_assoc_rec = type { ptr, ptr, ptr, ptr, ptr, ptr, ptr, i32, i32, i32, i32, i32, ptr, ptr, ptr, ptr, ptr, ptr, i32, i32, i16, ptr, ptr, i32, i32, i32, ptr, ptr, ptr, ptr, ptr, ptr, ptr, ptr, i32, i32, ptr, i32, ptr, i32, ptr, i32, i32, ptr, ptr, ptr }
%struct.slurmdb_assoc_usage = type { i32, ptr, ptr, ptr, ptr, ptr, double, double, i32, ptr, double, ptr, double, i32, x86_fp80, x86_fp80, x86_fp80, ptr, i32, i32, x86_fp80, ptr }

; Function Attrs: nounwind uwtable
define internal i32 @_cmp_level_fs(ptr noundef %0, ptr noundef %1) #0 {
  %3 = alloca i32, align 4
  %4 = alloca ptr, align 8
  %5 = alloca ptr, align 8
  %6 = alloca ptr, align 8
  %7 = alloca ptr, align 8
  %8 = alloca i32, align 4
  store ptr %0, ptr %4, align 8
  store ptr %1, ptr %5, align 8
  call void @llvm.lifetime.start.p0(i64 8, ptr %6) #4
  %9 = load ptr, ptr %4, align 8
  store ptr %9, ptr %6, align 8
  call void @llvm.lifetime.start.p0(i64 8, ptr %7) #4
  %10 = load ptr, ptr %5, align 8
  store ptr %10, ptr %7, align 8
  %11 = load ptr, ptr %6, align 8
  %12 = load ptr, ptr %11, align 8
  %13 = getelementptr inbounds nuw %struct.slurmdb_assoc_rec, ptr %12, i32 0, i32 43
  %14 = load ptr, ptr %13, align 8
  %15 = getelementptr inbounds nuw %struct.slurmdb_assoc_usage, ptr %14, i32 0, i32 20
  %16 = load x86_fp80, ptr %15, align 16
  %17 = load ptr, ptr %7, align 8
  %18 = load ptr, ptr %17, align 8
  %19 = getelementptr inbounds nuw %struct.slurmdb_assoc_rec, ptr %18, i32 0, i32 43
  %20 = load ptr, ptr %19, align 8
  %21 = getelementptr inbounds nuw %struct.slurmdb_assoc_usage, ptr %20, i32 0, i32 20
  %22 = load x86_fp80, ptr %21, align 16
  %23 = fcmp une x86_fp80 %16, %22
  br i1 %23, label %24, label %39

24:                                               ; preds = %2
  %25 = load ptr, ptr %6, align 8
  %26 = load ptr, ptr %25, align 8
  %27 = getelementptr inbounds nuw %struct.slurmdb_assoc_rec, ptr %26, i32 0, i32 43
  %28 = load ptr, ptr %27, align 8
  %29 = getelementptr inbounds nuw %struct.slurmdb_assoc_usage, ptr %28, i32 0, i32 20
  %30 = load x86_fp80, ptr %29, align 16
  %31 = load ptr, ptr %7, align 8
  %32 = load ptr, ptr %31, align 8
  %33 = getelementptr inbounds nuw %struct.slurmdb_assoc_rec, ptr %32, i32 0, i32 43
  %34 = load ptr, ptr %33, align 8
  %35 = getelementptr inbounds nuw %struct.slurmdb_assoc_usage, ptr %34, i32 0, i32 20
  %36 = load x86_fp80, ptr %35, align 16
  %37 = fcmp olt x86_fp80 %30, %36
  %38 = select i1 %37, i32 1, i32 -1
  store i32 %38, ptr %3, align 4
  store i32 1, ptr %8, align 4
  br label %63

39:                                               ; preds = %2
  %40 = load ptr, ptr %6, align 8
  %41 = load ptr, ptr %40, align 8
  %42 = getelementptr inbounds nuw %struct.slurmdb_assoc_rec, ptr %41, i32 0, i32 44
  %43 = load ptr, ptr %42, align 8
  %44 = icmp ne ptr %43, null
  %45 = xor i1 %44, true
  %46 = zext i1 %45 to i32
  %47 = load ptr, ptr %7, align 8
  %48 = load ptr, ptr %47, align 8
  %49 = getelementptr inbounds nuw %struct.slurmdb_assoc_rec, ptr %48, i32 0, i32 44
  %50 = load ptr, ptr %49, align 8
  %51 = icmp ne ptr %50, null
  %52 = xor i1 %51, true
  %53 = zext i1 %52 to i32
  %54 = icmp eq i32 %46, %53
  br i1 %54, label %55, label %56

55:                                               ; preds = %39
  store i32 0, ptr %3, align 4
  store i32 1, ptr %8, align 4
  br label %63

56:                                               ; preds = %39
  %57 = load ptr, ptr %6, align 8
  %58 = load ptr, ptr %57, align 8
  %59 = getelementptr inbounds nuw %struct.slurmdb_assoc_rec, ptr %58, i32 0, i32 44
  %60 = load ptr, ptr %59, align 8
  %61 = icmp ne ptr %60, null
  %62 = select i1 %61, i32 -1, i32 1
  store i32 %62, ptr %3, align 4
  store i32 1, ptr %8, align 4
  br label %63

63:                                               ; preds = %56, %55, %24
  call void @llvm.lifetime.end.p0(i64 8, ptr %7) #4
  call void @llvm.lifetime.end.p0(i64 8, ptr %6) #4
  %64 = load i32, ptr %3, align 4
  ret i32 %64
}