; Function Attrs: mustprogress nofree norecurse nosync nounwind willreturn memory(read, inaccessiblemem: none) uwtable
define internal range(i32 -1, 2) i32 @_cmp_level_fs(ptr noundef readonly captures(none) %0, ptr noundef readonly captures(none) %1) #5 {
  %3 = load ptr, ptr %0, align 8
  %4 = getelementptr inbounds nuw i8, ptr %3, i64 296
  %5 = load ptr, ptr %4, align 8
  %6 = getelementptr inbounds nuw i8, ptr %5, i64 176
  %7 = load x86_fp80, ptr %6, align 16
  %8 = load ptr, ptr %1, align 8
  %9 = getelementptr inbounds nuw i8, ptr %8, i64 296
  %10 = load ptr, ptr %9, align 8
  %11 = getelementptr inbounds nuw i8, ptr %10, i64 176
  %12 = load x86_fp80, ptr %11, align 16
  %13 = fcmp une x86_fp80 %7, %12
  br i1 %13, label %14, label %17

14:                                               ; preds = %2
  %15 = fcmp olt x86_fp80 %7, %12
  %16 = select i1 %15, i32 1, i32 -1
  br label %25

17:                                               ; preds = %2
  %18 = getelementptr inbounds nuw i8, ptr %3, i64 304
  %19 = load ptr, ptr %18, align 8
  %.not = icmp eq ptr %19, null
  %20 = getelementptr inbounds nuw i8, ptr %8, i64 304
  %21 = load ptr, ptr %20, align 8
  %22 = icmp ne ptr %21, null
  %23 = xor i1 %.not, %22
  %24 = select i1 %.not, i32 1, i32 -1
  %spec.select = select i1 %23, i32 0, i32 %24
  br label %25

25:                                               ; preds = %17, %14
  %.0 = phi i32 [ %16, %14 ], [ %spec.select, %17 ]
  ret i32 %.0
}